target datalayout = "e-m:e-p270:32:32-p271:32:32-p272:64:64-i64:64-i128:128-f80:128-n8:16:32:64-S128"
target triple = "x86_64-pc-linux-gnu"

%struct.rb_data_type_struct = type { ptr, %struct.anon, ptr, ptr, i64 }
%struct.anon = type { ptr, ptr, ptr, ptr, [1 x ptr] }

@ossl_x509_type = internal constant %struct.rb_data_type_struct { ptr @.str.34, %struct.anon { ptr null, ptr @ossl_x509_free, ptr null, ptr null, [1 x ptr] zeroinitializer }, ptr null, ptr null, i64 33 }, align 8
@rb_eRuntimeError = external global i64, align 8
@.str = private unnamed_addr constant [25 x i8] c"CERT wasn't initialized!\00", align 1

; Function Attrs: nounwind sspstrong uwtable
define ptr @GetX509CertPtr(i64 noundef %0) #0 {
  %2 = alloca i64, align 8
  %3 = alloca ptr, align 8
  store i64 %0, ptr %2, align 8, !tbaa !11
  call void @llvm.lifetime.start.p0(i64 8, ptr %3) #15
  br label %4

4:                                                ; preds = %1
  %5 = load i64, ptr %2, align 8, !tbaa !11
  %6 = call ptr @rb_check_typeddata(i64 noundef %5, ptr noundef @ossl_x509_type)
  store ptr %6, ptr %3, align 8, !tbaa !6
  %7 = load ptr, ptr %3, align 8, !tbaa !6
  %8 = icmp ne ptr %7, null
  br i1 %8, label %11, label %9

9:                                                ; preds = %4
  %10 = load i64, ptr @rb_eRuntimeError, align 8, !tbaa !11
  call void (i64, ptr, ...) @ossl_raise(i64 noundef %10, ptr noundef @.str) #16
  unreachable

11:                                               ; preds = %4
  br label %12

12:                                               ; preds = %11
  br label %13

13:                                               ; preds = %12
  %14 = load ptr, ptr %3, align 8, !tbaa !6
  call void @llvm.lifetime.end.p0(i64 8, ptr %3) #15
  ret ptr %14
}